(dp1
(Vreo
p2
S'pending'
tp3
ccopy_reg
_reconstructor
p4
(cpyspider.libs.counter
TotalCounter
p5
c__builtin__
object
p6
NtRp7
(dp8
S'cnt'
p9
I29
sbs(g2
S'success'
tp10
g4
(g5
g6
NtRp11
(dp12
g9
I70
sbs.